c__builtin__
set
p1
((lp2
S'urp_i'
p3
aS'src_bytes'
p4
aS'srv_count'
p5
aS'S0'
p6
aS'smtp'
p7
aS'rerror_rate'
p8
aS'REJ'
p9
aS'dst_host_srv_rerror_rate'
p10
aS'dst_host_same_srv_rate'
p11
aS'eco_i'
p12
aS'duration'
p13
aS'ftp_data'
p14
aS'srv_serror_rate'
p15
aS'wrong_fragment'
p16
aS'serror_rate'
p17
aS'num_compromised'
p18
aS'is_guest_login'
p19
aS'dst_host_rerror_rate'
p20
aS'dst_host_srv_serror_rate'
p21
aS'hot'
p22
aS'other'
p23
aS'dst_host_srv_count'
p24
aS'logged_in'
p25
aS'ecr_i'
p26
aS'srv_rerror_rate'
p27
aS'udp'
p28
aS'dst_host_srv_diff_host_rate'
p29
aS'domain_u'
p30
aS'ftp'
p31
aS'dst_host_same_src_port_rate'
p32
aS'telnet'
p33
aS'tcp'
p34
aS'dst_host_count'
p35
aS'icmp'
p36
aS'count'
p37
aS'RSTR'
p38
aS'same_srv_rate'
p39
aS'dst_bytes'
p40
aS'http'
p41
aS'dst_host_diff_srv_rate'
p42
aS'private'
p43
aS'SH'
p44
aS'srv_diff_host_rate'
p45
aS'diff_srv_rate'
p46
aS'num_failed_logins'
p47
aS'SF'
p48
aS'dst_host_serror_rate'
p49
atRp50
.